; ModuleID = 'source-C-CXX/14/2351.cpp'
source_filename = "source-C-CXX/14/2351.cpp"
target datalayout = "e-m:e-p270:32:32-p271:32:32-p272:64:64-i64:64-f80:128-n8:16:32:64-S128"
target triple = "x86_64-pc-linux-gnu"

%"class.std::ios_base::Init" = type { i8 }
%"class.std::basic_istream" = type { i32 (...)**, i64, %"class.std::basic_ios" }
%"class.std::basic_ios" = type { %"class.std::ios_base", %"class.std::basic_ostream"*, i8, i8, %"class.std::basic_streambuf"*, %"class.std::ctype"*, %"class.std::num_put"*, %"class.std::num_get"* }
%"class.std::ios_base" = type { i32 (...)**, i64, i64, i32, i32, i32, %"struct.std::ios_base::_Callback_list"*, %"struct.std::ios_base::_Words", [8 x %"struct.std::ios_base::_Words"], i32, %"struct.std::ios_base::_Words"*, %"class.std::locale" }
%"struct.std::ios_base::_Callback_list" = type { %"struct.std::ios_base::_Callback_list"*, void (i32, %"class.std::ios_base"*, i32)*, i32, i32 }
%"struct.std::ios_base::_Words" = type { i8*, i64 }
%"class.std::locale" = type { %"class.std::locale::_Impl"* }
%"class.std::locale::_Impl" = type { i32, %"class.std::locale::facet"**, i64, %"class.std::locale::facet"**, i8** }
%"class.std::locale::facet" = type <{ i32 (...)**, i32, [4 x i8] }>
%"class.std::basic_ostream" = type { i32 (...)**, %"class.std::basic_ios" }
%"class.std::basic_streambuf" = type { i32 (...)**, i8*, i8*, i8*, i8*, i8*, i8*, %"class.std::locale" }
%"class.std::ctype" = type <{ %"class.std::locale::facet.base", [4 x i8], %struct.__locale_struct*, i8, [7 x i8], i32*, i32*, i16*, i8, [256 x i8], [256 x i8], i8, [6 x i8] }>
%"class.std::locale::facet.base" = type <{ i32 (...)**, i32 }>
%struct.__locale_struct = type { [13 x %struct.__locale_data*], i16*, i32*, i32*, [13 x i8*] }
%struct.__locale_data = type opaque
%"class.std::num_put" = type { %"class.std::locale::facet.base", [4 x i8] }
%"class.std::num_get" = type { %"class.std::locale::facet.base", [4 x i8] }

@_ZStL8__ioinit = internal global %"class.std::ios_base::Init" zeroinitializer, align 1
@__dso_handle = external hidden global i8
@_ZSt3cin = external global %"class.std::basic_istream", align 8
@_ZSt4cout = external global %"class.std::basic_ostream", align 8
@llvm.global_ctors = appending global [1 x { i32, void ()*, i8* }] [{ i32, void ()*, i8* } { i32 65535, void ()* @_GLOBAL__sub_I_2351.cpp, i8* null }]

declare void @_ZNSt8ios_base4InitC1Ev(%"class.std::ios_base::Init"* nonnull align 1 dereferenceable(1)) unnamed_addr #0

; Function Attrs: nounwind
declare void @_ZNSt8ios_base4InitD1Ev(%"class.std::ios_base::Init"* nonnull align 1 dereferenceable(1)) unnamed_addr #1

; Function Attrs: nofree nounwind
declare i32 @__cxa_atexit(void (i8*)*, i8*, i8*) local_unnamed_addr #2

; Function Attrs: mustprogress norecurse sspstrong uwtable
define dso_local i32 @main() local_unnamed_addr #3 {
  %1 = alloca [1002 x [1002 x i32]], align 16
  %2 = alloca i32, align 4
  %3 = bitcast [1002 x [1002 x i32]]* %1 to i8*
  call void @llvm.lifetime.start.p0i8(i64 4016016, i8* nonnull %3) #7
  %4 = bitcast i32* %2 to i8*
  call void @llvm.lifetime.start.p0i8(i64 4, i8* nonnull %4) #7
  %5 = call nonnull align 8 dereferenceable(16) %"class.std::basic_istream"* @_ZNSirsERi(%"class.std::basic_istream"* nonnull align 8 dereferenceable(16) @_ZSt3cin, i32* nonnull align 4 dereferenceable(4) %2)
  %6 = load i32, i32* %2, align 4, !tbaa !5
  %7 = icmp slt i32 %6, 1
  br i1 %7, label %85, label %8

8:                                                ; preds = %0, %25
  %9 = phi i32 [ %26, %25 ], [ %6, %0 ]
  %10 = phi i64 [ %28, %25 ], [ 1, %0 ]
  %11 = icmp slt i32 %9, 1
  br i1 %11, label %25, label %17

12:                                               ; preds = %25
  %13 = icmp slt i32 %26, 1
  br i1 %13, label %85, label %14

14:                                               ; preds = %12
  %15 = add nuw i32 %26, 1
  %16 = zext i32 %15 to i64
  br label %30

17:                                               ; preds = %8, %17
  %18 = phi i64 [ %21, %17 ], [ 1, %8 ]
  %19 = getelementptr inbounds [1002 x [1002 x i32]], [1002 x [1002 x i32]]* %1, i64 0, i64 %10, i64 %18
  %20 = call nonnull align 8 dereferenceable(16) %"class.std::basic_istream"* @_ZNSirsERi(%"class.std::basic_istream"* nonnull align 8 dereferenceable(16) @_ZSt3cin, i32* nonnull align 4 dereferenceable(4) %19)
  %21 = add nuw nsw i64 %18, 1
  %22 = load i32, i32* %2, align 4, !tbaa !5
  %23 = sext i32 %22 to i64
  %24 = icmp slt i64 %18, %23
  br i1 %24, label %17, label %25, !llvm.loop !9

25:                                               ; preds = %17, %8
  %26 = phi i32 [ %9, %8 ], [ %22, %17 ]
  %27 = sext i32 %26 to i64
  %28 = add nuw nsw i64 %10, 1
  %29 = icmp slt i64 %10, %27
  br i1 %29, label %8, label %12, !llvm.loop !11

30:                                               ; preds = %14, %83
  %31 = phi i64 [ 1, %14 ], [ %36, %83 ]
  %32 = phi i32 [ undef, %14 ], [ %81, %83 ]
  %33 = phi i32 [ undef, %14 ], [ %80, %83 ]
  %34 = phi i32 [ undef, %14 ], [ %78, %83 ]
  %35 = phi i32 [ undef, %14 ], [ %79, %83 ]
  %36 = add nuw nsw i64 %31, 1
  %37 = and i64 %36, 4294967295
  %38 = add nsw i64 %31, -1
  %39 = trunc i64 %31 to i32
  %40 = trunc i64 %31 to i32
  br label %41

41:                                               ; preds = %30, %77
  %42 = phi i64 [ 1, %30 ], [ %50, %77 ]
  %43 = phi i32 [ %32, %30 ], [ %81, %77 ]
  %44 = phi i32 [ %33, %30 ], [ %80, %77 ]
  %45 = phi i32 [ %34, %30 ], [ %78, %77 ]
  %46 = phi i32 [ %35, %30 ], [ %79, %77 ]
  %47 = getelementptr inbounds [1002 x [1002 x i32]], [1002 x [1002 x i32]]* %1, i64 0, i64 %31, i64 %42
  %48 = load i32, i32* %47, align 4, !tbaa !5
  %49 = icmp eq i32 %48, 0
  %50 = add nuw nsw i64 %42, 1
  br i1 %49, label %51, label %77

51:                                               ; preds = %41
  %52 = and i64 %50, 4294967295
  %53 = getelementptr inbounds [1002 x [1002 x i32]], [1002 x [1002 x i32]]* %1, i64 0, i64 %31, i64 %52
  %54 = load i32, i32* %53, align 4, !tbaa !5
  %55 = icmp eq i32 %54, 0
  br i1 %55, label %56, label %63

56:                                               ; preds = %51
  %57 = getelementptr inbounds [1002 x [1002 x i32]], [1002 x [1002 x i32]]* %1, i64 0, i64 %37, i64 %42
  %58 = load i32, i32* %57, align 4, !tbaa !5
  %59 = icmp eq i32 %58, 0
  %60 = select i1 %59, i32 %39, i32 %46
  %61 = trunc i64 %42 to i32
  %62 = select i1 %59, i32 %61, i32 %45
  br label %63

63:                                               ; preds = %56, %51
  %64 = phi i32 [ %60, %56 ], [ %46, %51 ]
  %65 = phi i32 [ %62, %56 ], [ %45, %51 ]
  %66 = add nsw i64 %42, -1
  %67 = getelementptr inbounds [1002 x [1002 x i32]], [1002 x [1002 x i32]]* %1, i64 0, i64 %31, i64 %66
  %68 = load i32, i32* %67, align 4, !tbaa !5
  %69 = icmp eq i32 %68, 0
  br i1 %69, label %70, label %77

70:                                               ; preds = %63
  %71 = getelementptr inbounds [1002 x [1002 x i32]], [1002 x [1002 x i32]]* %1, i64 0, i64 %38, i64 %42
  %72 = load i32, i32* %71, align 4, !tbaa !5
  %73 = icmp eq i32 %72, 0
  %74 = select i1 %73, i32 %40, i32 %44
  %75 = trunc i64 %42 to i32
  %76 = select i1 %73, i32 %75, i32 %43
  br label %77

77:                                               ; preds = %41, %70, %63
  %78 = phi i32 [ %65, %70 ], [ %65, %63 ], [ %45, %41 ]
  %79 = phi i32 [ %64, %70 ], [ %64, %63 ], [ %46, %41 ]
  %80 = phi i32 [ %74, %70 ], [ %44, %63 ], [ %44, %41 ]
  %81 = phi i32 [ %76, %70 ], [ %43, %63 ], [ %43, %41 ]
  %82 = icmp eq i64 %50, %16
  br i1 %82, label %83, label %41, !llvm.loop !13

83:                                               ; preds = %77
  %84 = icmp eq i64 %36, %16
  br i1 %84, label %85, label %30, !llvm.loop !14

85:                                               ; preds = %83, %0, %12
  %86 = phi i32 [ undef, %12 ], [ undef, %0 ], [ %79, %83 ]
  %87 = phi i32 [ undef, %12 ], [ undef, %0 ], [ %78, %83 ]
  %88 = phi i32 [ undef, %12 ], [ undef, %0 ], [ %80, %83 ]
  %89 = phi i32 [ undef, %12 ], [ undef, %0 ], [ %81, %83 ]
  %90 = sub i32 1, %86
  %91 = add i32 %90, %88
  %92 = sub nsw i32 %89, %87
  %93 = add i32 %92, -1
  %94 = mul i32 %93, %91
  %95 = mul i32 %92, -2
  %96 = add i32 %95, 2
  %97 = add i32 %96, %94
  %98 = call nonnull align 8 dereferenceable(8) %"class.std::basic_ostream"* @_ZNSolsEi(%"class.std::basic_ostream"* nonnull align 8 dereferenceable(8) @_ZSt4cout, i32 %97)
  %99 = bitcast %"class.std::basic_ostream"* %98 to i8**
  %100 = load i8*, i8** %99, align 8, !tbaa !15
  %101 = getelementptr i8, i8* %100, i64 -24
  %102 = bitcast i8* %101 to i64*
  %103 = load i64, i64* %102, align 8
  %104 = bitcast %"class.std::basic_ostream"* %98 to i8*
  %105 = add nsw i64 %103, 240
  %106 = getelementptr inbounds i8, i8* %104, i64 %105
  %107 = bitcast i8* %106 to %"class.std::ctype"**
  %108 = load %"class.std::ctype"*, %"class.std::ctype"** %107, align 8, !tbaa !17
  %109 = icmp eq %"class.std::ctype"* %108, null
  br i1 %109, label %110, label %111

110:                                              ; preds = %85
  call void @_ZSt16__throw_bad_castv() #8
  unreachable

111:                                              ; preds = %85
  %112 = getelementptr inbounds %"class.std::ctype", %"class.std::ctype"* %108, i64 0, i32 8
  %113 = load i8, i8* %112, align 8, !tbaa !21
  %114 = icmp eq i8 %113, 0
  br i1 %114, label %118, label %115

115:                                              ; preds = %111
  %116 = getelementptr inbounds %"class.std::ctype", %"class.std::ctype"* %108, i64 0, i32 9, i64 10
  %117 = load i8, i8* %116, align 1, !tbaa !23
  br label %124

118:                                              ; preds = %111
  call void @_ZNKSt5ctypeIcE13_M_widen_initEv(%"class.std::ctype"* nonnull align 8 dereferenceable(570) %108)
  %119 = bitcast %"class.std::ctype"* %108 to i8 (%"class.std::ctype"*, i8)***
  %120 = load i8 (%"class.std::ctype"*, i8)**, i8 (%"class.std::ctype"*, i8)*** %119, align 8, !tbaa !15
  %121 = getelementptr inbounds i8 (%"class.std::ctype"*, i8)*, i8 (%"class.std::ctype"*, i8)** %120, i64 6
  %122 = load i8 (%"class.std::ctype"*, i8)*, i8 (%"class.std::ctype"*, i8)** %121, align 8
  %123 = call signext i8 %122(%"class.std::ctype"* nonnull align 8 dereferenceable(570) %108, i8 signext 10)
  br label %124

124:                                              ; preds = %115, %118
  %125 = phi i8 [ %117, %115 ], [ %123, %118 ]
  %126 = call nonnull align 8 dereferenceable(8) %"class.std::basic_ostream"* @_ZNSo3putEc(%"class.std::basic_ostream"* nonnull align 8 dereferenceable(8) %98, i8 signext %125)
  %127 = call nonnull align 8 dereferenceable(8) %"class.std::basic_ostream"* @_ZNSo5flushEv(%"class.std::basic_ostream"* nonnull align 8 dereferenceable(8) %126)
  call void @llvm.lifetime.end.p0i8(i64 4, i8* nonnull %4) #7
  call void @llvm.lifetime.end.p0i8(i64 4016016, i8* nonnull %3) #7
  ret i32 0
}

; Function Attrs: argmemonly mustprogress nofree nosync nounwind willreturn
declare void @llvm.lifetime.start.p0i8(i64 immarg, i8* nocapture) #4

declare nonnull align 8 dereferenceable(16) %"class.std::basic_istream"* @_ZNSirsERi(%"class.std::basic_istream"* nonnull align 8 dereferenceable(16), i32* nonnull align 4 dereferenceable(4)) local_unnamed_addr #0

declare nonnull align 8 dereferenceable(8) %"class.std::basic_ostream"* @_ZNSolsEi(%"class.std::basic_ostream"* nonnull align 8 dereferenceable(8), i32) local_unnamed_addr #0

; Function Attrs: argmemonly mustprogress nofree nosync nounwind willreturn
declare void @llvm.lifetime.end.p0i8(i64 immarg, i8* nocapture) #4

declare nonnull align 8 dereferenceable(8) %"class.std::basic_ostream"* @_ZNSo3putEc(%"class.std::basic_ostream"* nonnull align 8 dereferenceable(8), i8 signext) local_unnamed_addr #0

declare nonnull align 8 dereferenceable(8) %"class.std::basic_ostream"* @_ZNSo5flushEv(%"class.std::basic_ostream"* nonnull align 8 dereferenceable(8)) local_unnamed_addr #0

; Function Attrs: noreturn
declare void @_ZSt16__throw_bad_castv() local_unnamed_addr #5

declare void @_ZNKSt5ctypeIcE13_M_widen_initEv(%"class.std::ctype"* nonnull align 8 dereferenceable(570)) local_unnamed_addr #0

; Function Attrs: sspstrong uwtable
define internal void @_GLOBAL__sub_I_2351.cpp() #6 section ".text.startup" {
  tail call void @_ZNSt8ios_base4InitC1Ev(%"class.std::ios_base::Init"* nonnull align 1 dereferenceable(1) @_ZStL8__ioinit)
  %1 = tail call i32 @__cxa_atexit(void (i8*)* bitcast (void (%"class.std::ios_base::Init"*)* @_ZNSt8ios_base4InitD1Ev to void (i8*)*), i8* getelementptr inbounds (%"class.std::ios_base::Init", %"class.std::ios_base::Init"* @_ZStL8__ioinit, i64 0, i32 0), i8* nonnull @__dso_handle) #7
  ret void
}


!llvm.module.flags = !{!0, !1, !2, !3}
!llvm.ident = !{!4}

!0 = !{i32 1, !"wchar_size", i32 4}
!1 = !{i32 7, !"PIC Level", i32 2}
!2 = !{i32 7, !"PIE Level", i32 2}
!3 = !{i32 7, !"uwtable", i32 1}
!4 = !{!"clang version 13.0.0"}
!5 = !{!6, !6, i64 0}
!6 = !{!"int", !7, i64 0}
!7 = !{!"omnipotent char", !8, i64 0}
!8 = !{!"Simple C++ TBAA"}
!9 = distinct !{!9, !10}
!10 = !{!"llvm.loop.mustprogress"}
!11 = distinct !{!11, !10, !12}
!12 = !{!"llvm.loop.unswitch.partial.disable"}
!13 = distinct !{!13, !10}
!14 = distinct !{!14, !10}
!15 = !{!16, !16, i64 0}
!16 = !{!"vtable pointer", !8, i64 0}
!17 = !{!18, !19, i64 240}
!18 = !{!"_ZTSSt9basic_iosIcSt11char_traitsIcEE", !19, i64 216, !7, i64 224, !20, i64 225, !19, i64 232, !19, i64 240, !19, i64 248, !19, i64 256}
!19 = !{!"any pointer", !7, i64 0}
!20 = !{!"bool", !7, i64 0}
!21 = !{!22, !7, i64 56}
!22 = !{!"_ZTSSt5ctypeIcE", !19, i64 16, !20, i64 24, !19, i64 32, !19, i64 40, !19, i64 48, !7, i64 56, !7, i64 57, !7, i64 313, !7, i64 569}
!23 = !{!7, !7, i64 0}
